target datalayout = "e-m:e-p270:32:32-p271:32:32-p272:64:64-i64:64-i128:128-f80:128-n8:16:32:64-S128"
target triple = "x86_64-unknown-linux-gnu"

%"class.sat::use_list" = type { %class.vector }
%class.vector = type { ptr }
%class.ptr_vector = type { %class.vector.0 }
%class.vector.0 = type { ptr }
%"class.sat::simplifier" = type { ptr, i32, %"class.sat::use_list", %"class.sat::ext_use_list", %"class.sat::clause_set", %class.svector.3, i32, %class.tracked_uint_set, i8, %"class.sat::tmp_clause", %class.svector.5, i32, i32, i8, i8, i8, i8, i32, i8, i8, i32, i8, i32, i8, i8, i32, i32, i32, i32, i32, i32, i32, i32, i32, i32, i8, i32, i8, i8, i32, i32, i32, i32, i32, i32, i32, i32, i32, i32, i32, i8, i32, %class.ptr_vector, %class.svector.7, %class.svector.9, %class.svector.9, %class.svector.7 }
%"class.sat::ext_use_list" = type { %class.vector.1 }
%class.vector.1 = type { ptr }
%"class.sat::clause_set" = type { %class.svector, %class.ptr_vector }
%class.svector = type { %class.vector.2 }
%class.vector.2 = type { ptr }
%class.svector.3 = type { %class.vector.4 }
%class.vector.4 = type { ptr }
%class.tracked_uint_set = type { %class.svector.5, %class.svector }
%"class.sat::tmp_clause" = type { ptr }
%class.svector.5 = type { %class.vector.6 }
%class.vector.6 = type { ptr }
%class.svector.9 = type { %class.vector.10 }
%class.vector.10 = type { ptr }
%class.svector.7 = type { %class.vector.8 }
%class.vector.8 = type { ptr }

@.str.5 = private unnamed_addr constant [13 x i8] c"sat subsumed\00", align 1
@.str.6 = private unnamed_addr constant [20 x i8] c"sat subs resolution\00", align 1
@.str.7 = private unnamed_addr constant [18 x i8] c"sat elim literals\00", align 1
@.str.8 = private unnamed_addr constant [8 x i8] c"sat bce\00", align 1
@.str.9 = private unnamed_addr constant [8 x i8] c"sat cce\00", align 1
@.str.10 = private unnamed_addr constant [9 x i8] c"sat acce\00", align 1
@.str.11 = private unnamed_addr constant [9 x i8] c"sat abce\00", align 1
@.str.12 = private unnamed_addr constant [8 x i8] c"sat bca\00", align 1
@.str.13 = private unnamed_addr constant [8 x i8] c"sat ate\00", align 1

; Function Attrs: mustprogress uwtable
define hidden void @_ZNK3sat10simplifier18collect_statisticsER10statistics(ptr noundef nonnull align 8 dereferenceable(288) %this, ptr noundef nonnull align 8 dereferenceable(16) %st) #5 align 2 {
entry:
  %this.addr = alloca ptr, align 8
  %st.addr = alloca ptr, align 8
  store ptr %this, ptr %this.addr, align 8
  store ptr %st, ptr %st.addr, align 8
  %this1 = load ptr, ptr %this.addr, align 8
  %0 = load ptr, ptr %st.addr, align 8
  %m_num_subsumed = getelementptr inbounds %"class.sat::simplifier", ptr %this1, i32 0, i32 46
  %1 = load i32, ptr %m_num_subsumed, align 4
  call void @_ZN10statistics6updateEPKcj(ptr noundef nonnull align 8 dereferenceable(16) %0, ptr noundef @.str.5, i32 noundef %1)
  %2 = load ptr, ptr %st.addr, align 8
  %m_num_sub_res = getelementptr inbounds %"class.sat::simplifier", ptr %this1, i32 0, i32 48
  %3 = load i32, ptr %m_num_sub_res, align 4
  call void @_ZN10statistics6updateEPKcj(ptr noundef nonnull align 8 dereferenceable(16) %2, ptr noundef @.str.6, i32 noundef %3)
  %4 = load ptr, ptr %st.addr, align 8
  %m_num_elim_lits = getelementptr inbounds %"class.sat::simplifier", ptr %this1, i32 0, i32 49
  %5 = load i32, ptr %m_num_elim_lits, align 8
  call void @_ZN10statistics6updateEPKcj(ptr noundef nonnull align 8 dereferenceable(16) %4, ptr noundef @.str.7, i32 noundef %5)
  %6 = load ptr, ptr %st.addr, align 8
  %m_num_bce = getelementptr inbounds %"class.sat::simplifier", ptr %this1, i32 0, i32 40
  %7 = load i32, ptr %m_num_bce, align 4
  call void @_ZN10statistics6updateEPKcj(ptr noundef nonnull align 8 dereferenceable(16) %6, ptr noundef @.str.8, i32 noundef %7)
  %8 = load ptr, ptr %st.addr, align 8
  %m_num_cce = getelementptr inbounds %"class.sat::simplifier", ptr %this1, i32 0, i32 41
  %9 = load i32, ptr %m_num_cce, align 8
  call void @_ZN10statistics6updateEPKcj(ptr noundef nonnull align 8 dereferenceable(16) %8, ptr noundef @.str.9, i32 noundef %9)
  %10 = load ptr, ptr %st.addr, align 8
  %m_num_acce = getelementptr inbounds %"class.sat::simplifier", ptr %this1, i32 0, i32 42
  %11 = load i32, ptr %m_num_acce, align 4
  call void @_ZN10statistics6updateEPKcj(ptr noundef nonnull align 8 dereferenceable(16) %10, ptr noundef @.str.10, i32 noundef %11)
  %12 = load ptr, ptr %st.addr, align 8
  %m_num_abce = getelementptr inbounds %"class.sat::simplifier", ptr %this1, i32 0, i32 43
  %13 = load i32, ptr %m_num_abce, align 8
  call void @_ZN10statistics6updateEPKcj(ptr noundef nonnull align 8 dereferenceable(16) %12, ptr noundef @.str.11, i32 noundef %13)
  %14 = load ptr, ptr %st.addr, align 8
  %m_num_bca = getelementptr inbounds %"class.sat::simplifier", ptr %this1, i32 0, i32 44
  %15 = load i32, ptr %m_num_bca, align 4
  call void @_ZN10statistics6updateEPKcj(ptr noundef nonnull align 8 dereferenceable(16) %14, ptr noundef @.str.12, i32 noundef %15)
  %16 = load ptr, ptr %st.addr, align 8
  %m_num_ate = getelementptr inbounds %"class.sat::simplifier", ptr %this1, i32 0, i32 45
  %17 = load i32, ptr %m_num_ate, align 8
  call void @_ZN10statistics6updateEPKcj(ptr noundef nonnull align 8 dereferenceable(16) %16, ptr noundef @.str.13, i32 noundef %17)
  ret void
}