; Function Attrs: mustprogress uwtable
define hidden void @_ZNK3sat10simplifier18collect_statisticsER10statistics(ptr nocapture noundef nonnull readonly align 8 dereferenceable(288) %this, ptr noundef nonnull align 8 dereferenceable(16) %st) local_unnamed_addr #3 align 2 {
entry:
  %m_num_subsumed = getelementptr inbounds i8, ptr %this, i64 220
  %0 = load i32, ptr %m_num_subsumed, align 4
  tail call void @_ZN10statistics6updateEPKcj(ptr noundef nonnull align 8 dereferenceable(16) %st, ptr noundef nonnull @.str.5, i32 noundef %0)
  %m_num_sub_res = getelementptr inbounds i8, ptr %this, i64 228
  %1 = load i32, ptr %m_num_sub_res, align 4
  tail call void @_ZN10statistics6updateEPKcj(ptr noundef nonnull align 8 dereferenceable(16) %st, ptr noundef nonnull @.str.6, i32 noundef %1)
  %m_num_elim_lits = getelementptr inbounds i8, ptr %this, i64 232
  %2 = load i32, ptr %m_num_elim_lits, align 8
  tail call void @_ZN10statistics6updateEPKcj(ptr noundef nonnull align 8 dereferenceable(16) %st, ptr noundef nonnull @.str.7, i32 noundef %2)
  %m_num_bce = getelementptr inbounds i8, ptr %this, i64 196
  %3 = load i32, ptr %m_num_bce, align 4
  tail call void @_ZN10statistics6updateEPKcj(ptr noundef nonnull align 8 dereferenceable(16) %st, ptr noundef nonnull @.str.8, i32 noundef %3)
  %m_num_cce = getelementptr inbounds i8, ptr %this, i64 200
  %4 = load i32, ptr %m_num_cce, align 8
  tail call void @_ZN10statistics6updateEPKcj(ptr noundef nonnull align 8 dereferenceable(16) %st, ptr noundef nonnull @.str.9, i32 noundef %4)
  %m_num_acce = getelementptr inbounds i8, ptr %this, i64 204
  %5 = load i32, ptr %m_num_acce, align 4
  tail call void @_ZN10statistics6updateEPKcj(ptr noundef nonnull align 8 dereferenceable(16) %st, ptr noundef nonnull @.str.10, i32 noundef %5)
  %m_num_abce = getelementptr inbounds i8, ptr %this, i64 208
  %6 = load i32, ptr %m_num_abce, align 8
  tail call void @_ZN10statistics6updateEPKcj(ptr noundef nonnull align 8 dereferenceable(16) %st, ptr noundef nonnull @.str.11, i32 noundef %6)
  %m_num_bca = getelementptr inbounds i8, ptr %this, i64 212
  %7 = load i32, ptr %m_num_bca, align 4
  tail call void @_ZN10statistics6updateEPKcj(ptr noundef nonnull align 8 dereferenceable(16) %st, ptr noundef nonnull @.str.12, i32 noundef %7)
  %m_num_ate = getelementptr inbounds i8, ptr %this, i64 216
  %8 = load i32, ptr %m_num_ate, align 8
  tail call void @_ZN10statistics6updateEPKcj(ptr noundef nonnull align 8 dereferenceable(16) %st, ptr noundef nonnull @.str.13, i32 noundef %8)
  ret void
}